target datalayout = "e-m:e-p270:32:32-p271:32:32-p272:64:64-i64:64-i128:128-f80:128-n8:16:32:64-S128"
target triple = "x86_64-pc-linux-gnu"

%struct.Variable = type { i32, double, double, double, ptr, i8, %"class.std::vector", %"class.std::vector" }
%"class.std::vector" = type { %"struct.std::_Vector_base" }
%"struct.std::_Vector_base" = type { %"struct.std::_Vector_base<Constraint *, std::allocator<Constraint *>>::_Vector_impl" }
%"struct.std::_Vector_base<Constraint *, std::allocator<Constraint *>>::_Vector_impl" = type { %"struct.std::_Vector_base<Constraint *, std::allocator<Constraint *>>::_Vector_impl_data" }
%"struct.std::_Vector_base<Constraint *, std::allocator<Constraint *>>::_Vector_impl_data" = type { ptr, ptr, ptr }
%"class.__gnu_cxx::__normal_iterator.5" = type { ptr }
%struct.Constraint = type <{ ptr, ptr, double, double, i64, i8, i8, [6 x i8] }>

; Function Attrs: mustprogress nounwind uwtable
define linkonce_odr noundef nonnull align 8 dereferenceable(8) ptr @_ZNK9__gnu_cxx17__normal_iteratorIPP10ConstraintSt6vectorIS2_SaIS2_EEE4baseEv(ptr noundef nonnull align 8 dereferenceable(8) %0) #6 comdat align 2 {
  %2 = alloca ptr, align 8
  store ptr %0, ptr %2, align 8, !tbaa !60
  %3 = load ptr, ptr %2, align 8
  %4 = getelementptr inbounds nuw %"class.__gnu_cxx::__normal_iterator.5", ptr %3, i32 0, i32 0
  ret ptr %4
}

; Function Attrs: mustprogress nounwind uwtable
define linkonce_odr void @_ZN9__gnu_cxx17__normal_iteratorIPP10ConstraintSt6vectorIS2_SaIS2_EEEC2ERKS3_(ptr noundef nonnull align 8 dereferenceable(8) %0, ptr noundef nonnull align 8 dereferenceable(8) %1) unnamed_addr #6 comdat align 2 {
  %3 = alloca ptr, align 8
  %4 = alloca ptr, align 8
  store ptr %0, ptr %3, align 8, !tbaa !60
  store ptr %1, ptr %4, align 8, !tbaa !120
  %5 = load ptr, ptr %3, align 8
  %6 = getelementptr inbounds nuw %"class.__gnu_cxx::__normal_iterator.5", ptr %5, i32 0, i32 0
  %7 = load ptr, ptr %4, align 8, !tbaa !120
  %8 = load ptr, ptr %7, align 8, !tbaa !62
  store ptr %8, ptr %6, align 8, !tbaa !63
  ret void
}

; Function Attrs: inlinehint mustprogress nounwind uwtable
define linkonce_odr noundef zeroext i1 @_ZN5Block14canFollowRightEPK10ConstraintPK8Variable(ptr noundef nonnull align 8 dereferenceable(112) %0, ptr noundef %1, ptr noundef %2) #8 comdat align 2 {
  %4 = alloca ptr, align 8
  %5 = alloca ptr, align 8
  %6 = alloca ptr, align 8
  store ptr %0, ptr %4, align 8, !tbaa !3
  store ptr %1, ptr %5, align 8, !tbaa !53
  store ptr %2, ptr %6, align 8, !tbaa !8
  %7 = load ptr, ptr %4, align 8
  %8 = load ptr, ptr %5, align 8, !tbaa !53
  %9 = getelementptr inbounds nuw %struct.Constraint, ptr %8, i32 0, i32 1
  %10 = load ptr, ptr %9, align 8, !tbaa !59
  %11 = getelementptr inbounds nuw %struct.Variable, ptr %10, i32 0, i32 4
  %12 = load ptr, ptr %11, align 8, !tbaa !10
  %13 = icmp eq ptr %12, %7
  br i1 %13, label %14, label %25

14:                                               ; preds = %3
  %15 = load ptr, ptr %5, align 8, !tbaa !53
  %16 = getelementptr inbounds nuw %struct.Constraint, ptr %15, i32 0, i32 5
  %17 = load i8, ptr %16, align 8, !tbaa !67, !range !51, !noundef !52
  %18 = trunc i8 %17 to i1
  br i1 %18, label %19, label %25

19:                                               ; preds = %14
  %20 = load ptr, ptr %6, align 8, !tbaa !8
  %21 = load ptr, ptr %5, align 8, !tbaa !53
  %22 = getelementptr inbounds nuw %struct.Constraint, ptr %21, i32 0, i32 1
  %23 = load ptr, ptr %22, align 8, !tbaa !59
  %24 = icmp ne ptr %20, %23
  br label %25

25:                                               ; preds = %19, %14, %3
  %26 = phi i1 [ false, %14 ], [ false, %3 ], [ %24, %19 ]
  ret i1 %26
}

; Function Attrs: mustprogress nounwind uwtable
define linkonce_odr noundef nonnull align 8 dereferenceable(8) ptr @_ZN9__gnu_cxx17__normal_iteratorIPP10ConstraintSt6vectorIS2_SaIS2_EEEppEv(ptr noundef nonnull align 8 dereferenceable(8) %0) #6 comdat align 2 {
  %2 = alloca ptr, align 8
  store ptr %0, ptr %2, align 8, !tbaa !60
  %3 = load ptr, ptr %2, align 8
  %4 = getelementptr inbounds nuw %"class.__gnu_cxx::__normal_iterator.5", ptr %3, i32 0, i32 0
  %5 = load ptr, ptr %4, align 8, !tbaa !63
  %6 = getelementptr inbounds nuw ptr, ptr %5, i32 1
  store ptr %6, ptr %4, align 8, !tbaa !63
  ret ptr %3
}

; Function Attrs: inlinehint mustprogress nounwind uwtable
define linkonce_odr noundef zeroext i1 @_ZN5Block13canFollowLeftEPK10ConstraintPK8Variable(ptr noundef nonnull align 8 dereferenceable(112) %0, ptr noundef %1, ptr noundef %2) #8 comdat align 2 {
  %4 = alloca ptr, align 8
  %5 = alloca ptr, align 8
  %6 = alloca ptr, align 8
  store ptr %0, ptr %4, align 8, !tbaa !3
  store ptr %1, ptr %5, align 8, !tbaa !53
  store ptr %2, ptr %6, align 8, !tbaa !8
  %7 = load ptr, ptr %4, align 8
  %8 = load ptr, ptr %5, align 8, !tbaa !53
  %9 = getelementptr inbounds nuw %struct.Constraint, ptr %8, i32 0, i32 0
  %10 = load ptr, ptr %9, align 8, !tbaa !58
  %11 = getelementptr inbounds nuw %struct.Variable, ptr %10, i32 0, i32 4
  %12 = load ptr, ptr %11, align 8, !tbaa !10
  %13 = icmp eq ptr %12, %7
  br i1 %13, label %14, label %25

14:                                               ; preds = %3
  %15 = load ptr, ptr %5, align 8, !tbaa !53
  %16 = getelementptr inbounds nuw %struct.Constraint, ptr %15, i32 0, i32 5
  %17 = load i8, ptr %16, align 8, !tbaa !67, !range !51, !noundef !52
  %18 = trunc i8 %17 to i1
  br i1 %18, label %19, label %25

19:                                               ; preds = %14
  %20 = load ptr, ptr %6, align 8, !tbaa !8
  %21 = load ptr, ptr %5, align 8, !tbaa !53
  %22 = getelementptr inbounds nuw %struct.Constraint, ptr %21, i32 0, i32 0
  %23 = load ptr, ptr %22, align 8, !tbaa !58
  %24 = icmp ne ptr %20, %23
  br label %25

25:                                               ; preds = %19, %14, %3
  %26 = phi i1 [ false, %14 ], [ false, %3 ], [ %24, %19 ]
  ret i1 %26
}

; Function Attrs: mustprogress nounwind uwtable
define linkonce_odr noundef nonnull align 8 dereferenceable(8) ptr @_ZNK9__gnu_cxx17__normal_iteratorIPP10ConstraintSt6vectorIS2_SaIS2_EEEdeEv(ptr noundef nonnull align 8 dereferenceable(8) %0) #6 comdat align 2 {
  %2 = alloca ptr, align 8
  store ptr %0, ptr %2, align 8, !tbaa !60
  %3 = load ptr, ptr %2, align 8
  %4 = getelementptr inbounds nuw %"class.__gnu_cxx::__normal_iterator.5", ptr %3, i32 0, i32 0
  %5 = load ptr, ptr %4, align 8, !tbaa !63
  ret ptr %5
}

; Function Attrs: inlinehint mustprogress nounwind uwtable
define linkonce_odr noundef zeroext i1 @_ZN9__gnu_cxxneIPP10ConstraintSt6vectorIS2_SaIS2_EEEEbRKNS_17__normal_iteratorIT_T0_EESC_(ptr noundef nonnull align 8 dereferenceable(8) %0, ptr noundef nonnull align 8 dereferenceable(8) %1) #8 comdat {
  %3 = alloca ptr, align 8
  %4 = alloca ptr, align 8
  store ptr %0, ptr %3, align 8, !tbaa !60
  store ptr %1, ptr %4, align 8, !tbaa !60
  %5 = load ptr, ptr %3, align 8, !tbaa !60
  %6 = call noundef nonnull align 8 dereferenceable(8) ptr @_ZNK9__gnu_cxx17__normal_iteratorIPP10ConstraintSt6vectorIS2_SaIS2_EEE4baseEv(ptr noundef nonnull align 8 dereferenceable(8) %5) #3
  %7 = load ptr, ptr %6, align 8, !tbaa !62
  %8 = load ptr, ptr %4, align 8, !tbaa !60
  %9 = call noundef nonnull align 8 dereferenceable(8) ptr @_ZNK9__gnu_cxx17__normal_iteratorIPP10ConstraintSt6vectorIS2_SaIS2_EEE4baseEv(ptr noundef nonnull align 8 dereferenceable(8) %8) #3
  %10 = load ptr, ptr %9, align 8, !tbaa !62
  %11 = icmp ne ptr %7, %10
  ret i1 %11
}

; Function Attrs: mustprogress nounwind uwtable
define linkonce_odr ptr @_ZNSt6vectorIP10ConstraintSaIS1_EE3endEv(ptr noundef nonnull align 8 dereferenceable(24) %0) #6 comdat align 2 {
  %2 = alloca %"class.__gnu_cxx::__normal_iterator.5", align 8
  %3 = alloca ptr, align 8
  store ptr %0, ptr %3, align 8, !tbaa !40
  %4 = load ptr, ptr %3, align 8
  %5 = getelementptr inbounds nuw %"struct.std::_Vector_base", ptr %4, i32 0, i32 0
  %6 = getelementptr inbounds nuw %"struct.std::_Vector_base<Constraint *, std::allocator<Constraint *>>::_Vector_impl_data", ptr %5, i32 0, i32 1
  call void @_ZN9__gnu_cxx17__normal_iteratorIPP10ConstraintSt6vectorIS2_SaIS2_EEEC2ERKS3_(ptr noundef nonnull align 8 dereferenceable(8) %2, ptr noundef nonnull align 8 dereferenceable(8) %6) #3
  %7 = getelementptr inbounds nuw %"class.__gnu_cxx::__normal_iterator.5", ptr %2, i32 0, i32 0
  %8 = load ptr, ptr %7, align 8
  ret ptr %8
}

; Function Attrs: mustprogress nounwind uwtable
define linkonce_odr ptr @_ZNSt6vectorIP10ConstraintSaIS1_EE5beginEv(ptr noundef nonnull align 8 dereferenceable(24) %0) #6 comdat align 2 {
  %2 = alloca %"class.__gnu_cxx::__normal_iterator.5", align 8
  %3 = alloca ptr, align 8
  store ptr %0, ptr %3, align 8, !tbaa !40
  %4 = load ptr, ptr %3, align 8
  %5 = getelementptr inbounds nuw %"struct.std::_Vector_base", ptr %4, i32 0, i32 0
  %6 = getelementptr inbounds nuw %"struct.std::_Vector_base<Constraint *, std::allocator<Constraint *>>::_Vector_impl_data", ptr %5, i32 0, i32 0
  call void @_ZN9__gnu_cxx17__normal_iteratorIPP10ConstraintSt6vectorIS2_SaIS2_EEEC2ERKS3_(ptr noundef nonnull align 8 dereferenceable(8) %2, ptr noundef nonnull align 8 dereferenceable(8) %6) #3
  %7 = getelementptr inbounds nuw %"class.__gnu_cxx::__normal_iterator.5", ptr %2, i32 0, i32 0
  %8 = load ptr, ptr %7, align 8
  ret ptr %8
}

; Function Attrs: mustprogress uwtable
define void @_ZN5Block18populateSplitBlockEPS_P8VariableS2_(ptr noundef nonnull align 8 dereferenceable(112) %0, ptr noundef %1, ptr noundef %2, ptr noundef %3) #4 align 2 {
  %5 = alloca ptr, align 8
  %6 = alloca ptr, align 8
  %7 = alloca ptr, align 8
  %8 = alloca ptr, align 8
  %9 = alloca ptr, align 8
  %10 = alloca %"class.__gnu_cxx::__normal_iterator.5", align 8
  %11 = alloca %"class.__gnu_cxx::__normal_iterator.5", align 8
  %12 = alloca ptr, align 8
  %13 = alloca ptr, align 8
  %14 = alloca %"class.__gnu_cxx::__normal_iterator.5", align 8
  %15 = alloca %"class.__gnu_cxx::__normal_iterator.5", align 8
  %16 = alloca ptr, align 8
  store ptr %0, ptr %5, align 8, !tbaa !3
  store ptr %1, ptr %6, align 8, !tbaa !3
  store ptr %2, ptr %7, align 8, !tbaa !8
  store ptr %3, ptr %8, align 8, !tbaa !8
  %17 = load ptr, ptr %5, align 8
  %18 = load ptr, ptr %6, align 8, !tbaa !3
  %19 = load ptr, ptr %7, align 8, !tbaa !8
  call void @_ZN5Block11addVariableEP8Variable(ptr noundef nonnull align 8 dereferenceable(112) %18, ptr noundef %19)
  call void @llvm.lifetime.start.p0(i64 8, ptr %9) #3
  %20 = load ptr, ptr %7, align 8, !tbaa !8
  %21 = getelementptr inbounds nuw %struct.Variable, ptr %20, i32 0, i32 6
  store ptr %21, ptr %9, align 8, !tbaa !40
  call void @llvm.lifetime.start.p0(i64 8, ptr %10) #3
  %22 = load ptr, ptr %9, align 8, !tbaa !40
  %23 = call ptr @_ZNSt6vectorIP10ConstraintSaIS1_EE5beginEv(ptr noundef nonnull align 8 dereferenceable(24) %22) #3
  %24 = getelementptr inbounds nuw %"class.__gnu_cxx::__normal_iterator.5", ptr %10, i32 0, i32 0
  store ptr %23, ptr %24, align 8
  call void @llvm.lifetime.start.p0(i64 8, ptr %11) #3
  %25 = load ptr, ptr %9, align 8, !tbaa !40
  %26 = call ptr @_ZNSt6vectorIP10ConstraintSaIS1_EE3endEv(ptr noundef nonnull align 8 dereferenceable(24) %25) #3
  %27 = getelementptr inbounds nuw %"class.__gnu_cxx::__normal_iterator.5", ptr %11, i32 0, i32 0
  store ptr %26, ptr %27, align 8
  br label %28

28:                                               ; preds = %44, %4
  %29 = call noundef zeroext i1 @_ZN9__gnu_cxxneIPP10ConstraintSt6vectorIS2_SaIS2_EEEEbRKNS_17__normal_iteratorIT_T0_EESC_(ptr noundef nonnull align 8 dereferenceable(8) %10, ptr noundef nonnull align 8 dereferenceable(8) %11) #3
  br i1 %29, label %31, label %30

30:                                               ; preds = %28
  call void @llvm.lifetime.end.p0(i64 8, ptr %11) #3
  call void @llvm.lifetime.end.p0(i64 8, ptr %10) #3
  call void @llvm.lifetime.end.p0(i64 8, ptr %9) #3
  br label %46

31:                                               ; preds = %28
  call void @llvm.lifetime.start.p0(i64 8, ptr %12) #3
  %32 = call noundef nonnull align 8 dereferenceable(8) ptr @_ZNK9__gnu_cxx17__normal_iteratorIPP10ConstraintSt6vectorIS2_SaIS2_EEEdeEv(ptr noundef nonnull align 8 dereferenceable(8) %10) #3
  %33 = load ptr, ptr %32, align 8, !tbaa !53
  store ptr %33, ptr %12, align 8, !tbaa !53
  %34 = load ptr, ptr %12, align 8, !tbaa !53
  %35 = load ptr, ptr %8, align 8, !tbaa !8
  %36 = call noundef zeroext i1 @_ZN5Block13canFollowLeftEPK10ConstraintPK8Variable(ptr noundef nonnull align 8 dereferenceable(112) %17, ptr noundef %34, ptr noundef %35)
  br i1 %36, label %37, label %43

37:                                               ; preds = %31
  %38 = load ptr, ptr %6, align 8, !tbaa !3
  %39 = load ptr, ptr %12, align 8, !tbaa !53
  %40 = getelementptr inbounds nuw %struct.Constraint, ptr %39, i32 0, i32 0
  %41 = load ptr, ptr %40, align 8, !tbaa !58
  %42 = load ptr, ptr %7, align 8, !tbaa !8
  call void @_ZN5Block18populateSplitBlockEPS_P8VariableS2_(ptr noundef nonnull align 8 dereferenceable(112) %17, ptr noundef %38, ptr noundef %41, ptr noundef %42)
  br label %43

43:                                               ; preds = %37, %31
  call void @llvm.lifetime.end.p0(i64 8, ptr %12) #3
  br label %44

44:                                               ; preds = %43
  %45 = call noundef nonnull align 8 dereferenceable(8) ptr @_ZN9__gnu_cxx17__normal_iteratorIPP10ConstraintSt6vectorIS2_SaIS2_EEEppEv(ptr noundef nonnull align 8 dereferenceable(8) %10) #3
  br label %28

46:                                               ; preds = %30
  call void @llvm.lifetime.start.p0(i64 8, ptr %13) #3
  %47 = load ptr, ptr %7, align 8, !tbaa !8
  %48 = getelementptr inbounds nuw %struct.Variable, ptr %47, i32 0, i32 7
  store ptr %48, ptr %13, align 8, !tbaa !40
  call void @llvm.lifetime.start.p0(i64 8, ptr %14) #3
  %49 = load ptr, ptr %13, align 8, !tbaa !40
  %50 = call ptr @_ZNSt6vectorIP10ConstraintSaIS1_EE5beginEv(ptr noundef nonnull align 8 dereferenceable(24) %49) #3
  %51 = getelementptr inbounds nuw %"class.__gnu_cxx::__normal_iterator.5", ptr %14, i32 0, i32 0
  store ptr %50, ptr %51, align 8
  call void @llvm.lifetime.start.p0(i64 8, ptr %15) #3
  %52 = load ptr, ptr %13, align 8, !tbaa !40
  %53 = call ptr @_ZNSt6vectorIP10ConstraintSaIS1_EE3endEv(ptr noundef nonnull align 8 dereferenceable(24) %52) #3
  %54 = getelementptr inbounds nuw %"class.__gnu_cxx::__normal_iterator.5", ptr %15, i32 0, i32 0
  store ptr %53, ptr %54, align 8
  br label %55

55:                                               ; preds = %71, %46
  %56 = call noundef zeroext i1 @_ZN9__gnu_cxxneIPP10ConstraintSt6vectorIS2_SaIS2_EEEEbRKNS_17__normal_iteratorIT_T0_EESC_(ptr noundef nonnull align 8 dereferenceable(8) %14, ptr noundef nonnull align 8 dereferenceable(8) %15) #3
  br i1 %56, label %58, label %57

57:                                               ; preds = %55
  call void @llvm.lifetime.end.p0(i64 8, ptr %15) #3
  call void @llvm.lifetime.end.p0(i64 8, ptr %14) #3
  call void @llvm.lifetime.end.p0(i64 8, ptr %13) #3
  br label %73

58:                                               ; preds = %55
  call void @llvm.lifetime.start.p0(i64 8, ptr %16) #3
  %59 = call noundef nonnull align 8 dereferenceable(8) ptr @_ZNK9__gnu_cxx17__normal_iteratorIPP10ConstraintSt6vectorIS2_SaIS2_EEEdeEv(ptr noundef nonnull align 8 dereferenceable(8) %14) #3
  %60 = load ptr, ptr %59, align 8, !tbaa !53
  store ptr %60, ptr %16, align 8, !tbaa !53
  %61 = load ptr, ptr %16, align 8, !tbaa !53
  %62 = load ptr, ptr %8, align 8, !tbaa !8
  %63 = call noundef zeroext i1 @_ZN5Block14canFollowRightEPK10ConstraintPK8Variable(ptr noundef nonnull align 8 dereferenceable(112) %17, ptr noundef %61, ptr noundef %62)
  br i1 %63, label %64, label %70

64:                                               ; preds = %58
  %65 = load ptr, ptr %6, align 8, !tbaa !3
  %66 = load ptr, ptr %16, align 8, !tbaa !53
  %67 = getelementptr inbounds nuw %struct.Constraint, ptr %66, i32 0, i32 1
  %68 = load ptr, ptr %67, align 8, !tbaa !59
  %69 = load ptr, ptr %7, align 8, !tbaa !8
  call void @_ZN5Block18populateSplitBlockEPS_P8VariableS2_(ptr noundef nonnull align 8 dereferenceable(112) %17, ptr noundef %65, ptr noundef %68, ptr noundef %69)
  br label %70

70:                                               ; preds = %64, %58
  call void @llvm.lifetime.end.p0(i64 8, ptr %16) #3
  br label %71

71:                                               ; preds = %70
  %72 = call noundef nonnull align 8 dereferenceable(8) ptr @_ZN9__gnu_cxx17__normal_iteratorIPP10ConstraintSt6vectorIS2_SaIS2_EEEppEv(ptr noundef nonnull align 8 dereferenceable(8) %14) #3
  br label %55

73:                                               ; preds = %57
  ret void
}