; Function Attrs: mustprogress uwtable
define void @_ZN5Block18populateSplitBlockEPS_P8VariableS2_(ptr noundef nonnull align 8 dereferenceable(112) %0, ptr noundef nonnull %1, ptr noundef initializes((32, 40)) %2, ptr noundef readnone captures(address) %3) local_unnamed_addr #3 align 2 {
  tail call void @_ZN5Block11addVariableEP8Variable(ptr noundef nonnull align 8 dereferenceable(112) %1, ptr noundef %2)
  %5 = getelementptr inbounds nuw i8, ptr %2, i64 48
  %6 = load ptr, ptr %5, align 8, !tbaa !41
  %7 = getelementptr inbounds nuw i8, ptr %2, i64 56
  %8 = load ptr, ptr %7, align 8, !tbaa !41
  %.not28 = icmp eq ptr %6, %8
  br i1 %.not28, label %._crit_edge, label %.lr.ph

._crit_edge:                                      ; preds = %_ZN5Block13canFollowLeftEPK10ConstraintPK8Variable.exit.thread, %4
  %9 = getelementptr inbounds nuw i8, ptr %2, i64 72
  %10 = load ptr, ptr %9, align 8, !tbaa !41
  %11 = getelementptr inbounds nuw i8, ptr %2, i64 80
  %12 = load ptr, ptr %11, align 8, !tbaa !41
  %.not2730 = icmp eq ptr %10, %12
  br i1 %.not2730, label %._crit_edge34, label %.lr.ph33

.lr.ph:                                           ; preds = %4, %_ZN5Block13canFollowLeftEPK10ConstraintPK8Variable.exit.thread
  %.sroa.024.029 = phi ptr [ %23, %_ZN5Block13canFollowLeftEPK10ConstraintPK8Variable.exit.thread ], [ %6, %4 ]
  %13 = load ptr, ptr %.sroa.024.029, align 8, !tbaa !43
  %14 = load ptr, ptr %13, align 8, !tbaa !47
  %15 = getelementptr inbounds nuw i8, ptr %14, i64 32
  %16 = load ptr, ptr %15, align 8, !tbaa !3
  %17 = icmp eq ptr %16, %0
  br i1 %17, label %_ZN5Block13canFollowLeftEPK10ConstraintPK8Variable.exit, label %_ZN5Block13canFollowLeftEPK10ConstraintPK8Variable.exit.thread

_ZN5Block13canFollowLeftEPK10ConstraintPK8Variable.exit: ; preds = %.lr.ph
  %18 = getelementptr inbounds nuw i8, ptr %13, i64 40
  %19 = load i8, ptr %18, align 8, !tbaa !50, !range !58, !noundef !59
  %20 = trunc nuw i8 %19 to i1
  %21 = icmp ne ptr %3, %14
  %spec.select.i = and i1 %21, %20
  br i1 %spec.select.i, label %22, label %_ZN5Block13canFollowLeftEPK10ConstraintPK8Variable.exit.thread

22:                                               ; preds = %_ZN5Block13canFollowLeftEPK10ConstraintPK8Variable.exit
  tail call void @_ZN5Block18populateSplitBlockEPS_P8VariableS2_(ptr noundef nonnull align 8 dereferenceable(112) %0, ptr noundef nonnull %1, ptr noundef nonnull %14, ptr noundef %2)
  br label %_ZN5Block13canFollowLeftEPK10ConstraintPK8Variable.exit.thread

_ZN5Block13canFollowLeftEPK10ConstraintPK8Variable.exit.thread: ; preds = %.lr.ph, %22, %_ZN5Block13canFollowLeftEPK10ConstraintPK8Variable.exit
  %23 = getelementptr inbounds nuw i8, ptr %.sroa.024.029, i64 8
  %.not = icmp eq ptr %23, %8
  br i1 %.not, label %._crit_edge, label %.lr.ph

._crit_edge34:                                    ; preds = %_ZN5Block14canFollowRightEPK10ConstraintPK8Variable.exit.thread, %._crit_edge
  ret void

.lr.ph33:                                         ; preds = %._crit_edge, %_ZN5Block14canFollowRightEPK10ConstraintPK8Variable.exit.thread
  %.sroa.020.031 = phi ptr [ %35, %_ZN5Block14canFollowRightEPK10ConstraintPK8Variable.exit.thread ], [ %10, %._crit_edge ]
  %24 = load ptr, ptr %.sroa.020.031, align 8, !tbaa !43
  %25 = getelementptr inbounds nuw i8, ptr %24, i64 8
  %26 = load ptr, ptr %25, align 8, !tbaa !48
  %27 = getelementptr inbounds nuw i8, ptr %26, i64 32
  %28 = load ptr, ptr %27, align 8, !tbaa !3
  %29 = icmp eq ptr %28, %0
  br i1 %29, label %_ZN5Block14canFollowRightEPK10ConstraintPK8Variable.exit, label %_ZN5Block14canFollowRightEPK10ConstraintPK8Variable.exit.thread

_ZN5Block14canFollowRightEPK10ConstraintPK8Variable.exit: ; preds = %.lr.ph33
  %30 = getelementptr inbounds nuw i8, ptr %24, i64 40
  %31 = load i8, ptr %30, align 8, !tbaa !50, !range !58, !noundef !59
  %32 = trunc nuw i8 %31 to i1
  %33 = icmp ne ptr %3, %26
  %spec.select.i19 = and i1 %33, %32
  br i1 %spec.select.i19, label %34, label %_ZN5Block14canFollowRightEPK10ConstraintPK8Variable.exit.thread

34:                                               ; preds = %_ZN5Block14canFollowRightEPK10ConstraintPK8Variable.exit
  tail call void @_ZN5Block18populateSplitBlockEPS_P8VariableS2_(ptr noundef nonnull align 8 dereferenceable(112) %0, ptr noundef nonnull %1, ptr noundef nonnull %26, ptr noundef %2)
  br label %_ZN5Block14canFollowRightEPK10ConstraintPK8Variable.exit.thread

_ZN5Block14canFollowRightEPK10ConstraintPK8Variable.exit.thread: ; preds = %.lr.ph33, %34, %_ZN5Block14canFollowRightEPK10ConstraintPK8Variable.exit
  %35 = getelementptr inbounds nuw i8, ptr %.sroa.020.031, i64 8
  %.not27 = icmp eq ptr %35, %12
  br i1 %.not27, label %._crit_edge34, label %.lr.ph33
}